; Function Attrs: mustprogress nofree nounwind willreturn memory(argmem: readwrite) uwtable
define void @duckdb_je_arena_name_get(ptr noundef %0, ptr noundef %1) local_unnamed_addr #9 {
  %3 = getelementptr inbounds nuw i8, ptr %0, i64 78976
  %4 = tail call ptr @memchr(ptr noundef nonnull dereferenceable(1) %3, i32 noundef 0, i64 noundef 32) #19
  %5 = ptrtoint ptr %4 to i64
  %6 = ptrtoint ptr %3 to i64
  %reass.sub = sub i64 %5, %6
  %7 = add i64 %reass.sub, 1
  %8 = tail call ptr @strncpy(ptr noundef %1, ptr noundef nonnull %3, i64 noundef %7) #18
  ret void
}